; Function Attrs: nounwind sspstrong uwtable
define internal range(i64 1, 1024) i64 @rb_file_world_writable_p(i64 %0, i64 noundef %1) #0 {
  %3 = alloca %struct.stat, align 8
  call void @llvm.lifetime.start.p0(i64 144, ptr nonnull %3) #22
  %4 = call fastcc i32 @rb_stat(i64 noundef %1, ptr noundef %3)
  %5 = icmp slt i32 %4, 0
  br i1 %5, label %15, label %6

6:                                                ; preds = %2
  %7 = getelementptr inbounds nuw i8, ptr %3, i64 24
  %8 = load i32, ptr %7, align 8, !tbaa !180
  %9 = and i32 %8, 2
  %.not = icmp eq i32 %9, 0
  br i1 %.not, label %15, label %10

10:                                               ; preds = %6
  %11 = shl i32 %8, 1
  %12 = and i32 %11, 1022
  %13 = or disjoint i32 %12, 1
  %14 = zext nneg i32 %13 to i64
  br label %15

15:                                               ; preds = %6, %2, %10
  %.0 = phi i64 [ %14, %10 ], [ 4, %2 ], [ 4, %6 ]
  call void @llvm.lifetime.end.p0(i64 144, ptr nonnull %3) #22
  ret i64 %.0
}